; Function Attrs: mustprogress nounwind null_pointer_is_valid sspstrong uwtable
define void @_ZN15StatsTreeDialogD2Ev(ptr noundef align 8 dereferenceable_or_null(256) initializes((0, 8), (16, 24)) %0) unnamed_addr #4 align 2 personality ptr @__gxx_personality_v0 {
  store ptr getelementptr inbounds nuw inrange(-16, 528) (i8, ptr @_ZTV15StatsTreeDialog, i64 16), ptr %0, align 8
  %2 = getelementptr inbounds nuw i8, ptr %0, i64 16
  store ptr getelementptr inbounds nuw inrange(-16, 64) (i8, ptr @_ZTV15StatsTreeDialog, i64 560), ptr %2, align 8
  %3 = getelementptr inbounds nuw i8, ptr %0, i64 240
  %4 = load ptr, ptr %3, align 8
  %.not = icmp eq ptr %4, null
  br i1 %.not, label %6, label %5

5:                                                ; preds = %1
  invoke void @stats_tree_free(ptr noundef nonnull %4)
          to label %6 unwind label %7

6:                                                ; preds = %5, %1
  tail call void @_ZN18TapParameterDialogD2Ev(ptr noundef align 8 dereferenceable_or_null(232) %0) #19
  ret void

7:                                                ; preds = %5
  %8 = landingpad { ptr, i32 }
          catch ptr null
  %9 = extractvalue { ptr, i32 } %8, 0
  tail call void @__clang_call_terminate(ptr %9) #20
  unreachable
}